#include <math.h>
#include <stdio.h>
#include <stdlib.h>
#include <string.h>
#define LEN 100
#define ASCII 100
#define MAX_N 100
#define MAX_N 100
#define L 100
#define MAX 100
#define ASC 100
#define null 0
#define Len 100
#define M 100
#define SUM 100
#define NUMBER 100
#define SIZE 100
#define N 100
#define Max 100
#define X 100
#define Y 100
#define A 100
#define MAXN 100
#define MAXSIZE 100
int main(int argc, char* argv[])
{
	int n;
	scanf("%d",&n);
	double x1,x2;
	float a[N],b[N],c[N];
    int i;
	for(i=0;i<n;i++)
	{
		scanf("%f%f%f",&a[i],&b[i],&c[i]);
	}
	for(i=0;i<n;i++)
	{
		if(a!=0)
		{ double m,n,p;
		  m=(-b[i])/(2*a[i]);
		  n=sqrt((b[i]*b[i]-4*a[i]*c[i]))/(2*a[i]);
		  p=sqrt(4*a[i]*c[i]-b[i]*b[i])/(2*a[i]);
	      if(b[i]*b[i]-4*a[i]*c[i]>0)
		  {
			  x1=m+n;
			  x2=m-n;
		     printf("x1=%.5f;x2=%.5f\n",x1,x2);
		  }
		  else if(b[i]*b[i]-4*a[i]*c[i]==0)
		  {
		     printf("x1=x2=%.5f\n",m);
		  }else
		  {
		    printf("x1=%.5f+%.5fi;",m,p);
			printf("x2=%.5f-%.5fi\n",m,p);
		  }
		}
	}
	return 0;
}