; ModuleID = '27/2156.c'
source_filename = "27/2156.c"
target datalayout = "e-m:e-p270:32:32-p271:32:32-p272:64:64-i64:64-f80:128-n8:16:32:64-S128"
target triple = "x86_64-pc-linux-gnu"

@.str = private unnamed_addr constant [3 x i8] c"%d\00", align 1
@.str.1 = private unnamed_addr constant [7 x i8] c"%f%f%f\00", align 1
@.str.2 = private unnamed_addr constant [17 x i8] c"x1=%.5f;x2=%.5f\0A\00", align 1
@.str.3 = private unnamed_addr constant [12 x i8] c"x1=x2=%.5f\0A\00", align 1
@.str.4 = private unnamed_addr constant [15 x i8] c"x1=%.5f+%.5fi;\00", align 1
@.str.5 = private unnamed_addr constant [15 x i8] c"x2=%.5f-%.5fi\0A\00", align 1

; Function Attrs: noinline nounwind uwtable
define dso_local i32 @main(i32 %0, i8** %1) #0 {
  %3 = alloca i32, align 4
  %4 = alloca i32, align 4
  %5 = alloca i8**, align 8
  %6 = alloca i32, align 4
  %7 = alloca double, align 8
  %8 = alloca double, align 8
  %9 = alloca [100 x float], align 16
  %10 = alloca [100 x float], align 16
  %11 = alloca [100 x float], align 16
  %12 = alloca i32, align 4
  %13 = alloca double, align 8
  %14 = alloca double, align 8
  %15 = alloca double, align 8
  store i32 0, i32* %3, align 4
  store i32 %0, i32* %4, align 4
  store i8** %1, i8*** %5, align 8
  %16 = call i32 (i8*, ...) @__isoc99_scanf(i8* getelementptr inbounds ([3 x i8], [3 x i8]* @.str, i64 0, i64 0), i32* %6)
  store i32 0, i32* %12, align 4
  br label %17

17:                                               ; preds = %32, %2
  %18 = load i32, i32* %12, align 4
  %19 = load i32, i32* %6, align 4
  %20 = icmp slt i32 %18, %19
  br i1 %20, label %21, label %35

21:                                               ; preds = %17
  %22 = load i32, i32* %12, align 4
  %23 = sext i32 %22 to i64
  %24 = getelementptr inbounds [100 x float], [100 x float]* %9, i64 0, i64 %23
  %25 = load i32, i32* %12, align 4
  %26 = sext i32 %25 to i64
  %27 = getelementptr inbounds [100 x float], [100 x float]* %10, i64 0, i64 %26
  %28 = load i32, i32* %12, align 4
  %29 = sext i32 %28 to i64
  %30 = getelementptr inbounds [100 x float], [100 x float]* %11, i64 0, i64 %29
  %31 = call i32 (i8*, ...) @__isoc99_scanf(i8* getelementptr inbounds ([7 x i8], [7 x i8]* @.str.1, i64 0, i64 0), float* %24, float* %27, float* %30)
  br label %32

32:                                               ; preds = %21
  %33 = load i32, i32* %12, align 4
  %34 = add nsw i32 %33, 1
  store i32 %34, i32* %12, align 4
  br label %17

35:                                               ; preds = %17
  store i32 0, i32* %12, align 4
  br label %36

36:                                               ; preds = %176, %35
  %37 = load i32, i32* %12, align 4
  %38 = load i32, i32* %6, align 4
  %39 = icmp slt i32 %37, %38
  br i1 %39, label %40, label %179

40:                                               ; preds = %36
  %41 = load i32, i32* %12, align 4
  %42 = sext i32 %41 to i64
  %43 = getelementptr inbounds [100 x float], [100 x float]* %10, i64 0, i64 %42
  %44 = load float, float* %43, align 4
  %45 = fneg float %44
  %46 = load i32, i32* %12, align 4
  %47 = sext i32 %46 to i64
  %48 = getelementptr inbounds [100 x float], [100 x float]* %9, i64 0, i64 %47
  %49 = load float, float* %48, align 4
  %50 = fmul float 2.000000e+00, %49
  %51 = fdiv float %45, %50
  %52 = fpext float %51 to double
  store double %52, double* %13, align 8
  %53 = load i32, i32* %12, align 4
  %54 = sext i32 %53 to i64
  %55 = getelementptr inbounds [100 x float], [100 x float]* %10, i64 0, i64 %54
  %56 = load float, float* %55, align 4
  %57 = load i32, i32* %12, align 4
  %58 = sext i32 %57 to i64
  %59 = getelementptr inbounds [100 x float], [100 x float]* %10, i64 0, i64 %58
  %60 = load float, float* %59, align 4
  %61 = fmul float %56, %60
  %62 = load i32, i32* %12, align 4
  %63 = sext i32 %62 to i64
  %64 = getelementptr inbounds [100 x float], [100 x float]* %9, i64 0, i64 %63
  %65 = load float, float* %64, align 4
  %66 = fmul float 4.000000e+00, %65
  %67 = load i32, i32* %12, align 4
  %68 = sext i32 %67 to i64
  %69 = getelementptr inbounds [100 x float], [100 x float]* %11, i64 0, i64 %68
  %70 = load float, float* %69, align 4
  %71 = fmul float %66, %70
  %72 = fsub float %61, %71
  %73 = fpext float %72 to double
  %74 = call double @sqrt(double %73) #3
  %75 = load i32, i32* %12, align 4
  %76 = sext i32 %75 to i64
  %77 = getelementptr inbounds [100 x float], [100 x float]* %9, i64 0, i64 %76
  %78 = load float, float* %77, align 4
  %79 = fmul float 2.000000e+00, %78
  %80 = fpext float %79 to double
  %81 = fdiv double %74, %80
  store double %81, double* %14, align 8
  %82 = load i32, i32* %12, align 4
  %83 = sext i32 %82 to i64
  %84 = getelementptr inbounds [100 x float], [100 x float]* %9, i64 0, i64 %83
  %85 = load float, float* %84, align 4
  %86 = fmul float 4.000000e+00, %85
  %87 = load i32, i32* %12, align 4
  %88 = sext i32 %87 to i64
  %89 = getelementptr inbounds [100 x float], [100 x float]* %11, i64 0, i64 %88
  %90 = load float, float* %89, align 4
  %91 = fmul float %86, %90
  %92 = load i32, i32* %12, align 4
  %93 = sext i32 %92 to i64
  %94 = getelementptr inbounds [100 x float], [100 x float]* %10, i64 0, i64 %93
  %95 = load float, float* %94, align 4
  %96 = load i32, i32* %12, align 4
  %97 = sext i32 %96 to i64
  %98 = getelementptr inbounds [100 x float], [100 x float]* %10, i64 0, i64 %97
  %99 = load float, float* %98, align 4
  %100 = fmul float %95, %99
  %101 = fsub float %91, %100
  %102 = fpext float %101 to double
  %103 = call double @sqrt(double %102) #3
  %104 = load i32, i32* %12, align 4
  %105 = sext i32 %104 to i64
  %106 = getelementptr inbounds [100 x float], [100 x float]* %9, i64 0, i64 %105
  %107 = load float, float* %106, align 4
  %108 = fmul float 2.000000e+00, %107
  %109 = fpext float %108 to double
  %110 = fdiv double %103, %109
  store double %110, double* %15, align 8
  %111 = load i32, i32* %12, align 4
  %112 = sext i32 %111 to i64
  %113 = getelementptr inbounds [100 x float], [100 x float]* %10, i64 0, i64 %112
  %114 = load float, float* %113, align 4
  %115 = load i32, i32* %12, align 4
  %116 = sext i32 %115 to i64
  %117 = getelementptr inbounds [100 x float], [100 x float]* %10, i64 0, i64 %116
  %118 = load float, float* %117, align 4
  %119 = fmul float %114, %118
  %120 = load i32, i32* %12, align 4
  %121 = sext i32 %120 to i64
  %122 = getelementptr inbounds [100 x float], [100 x float]* %9, i64 0, i64 %121
  %123 = load float, float* %122, align 4
  %124 = fmul float 4.000000e+00, %123
  %125 = load i32, i32* %12, align 4
  %126 = sext i32 %125 to i64
  %127 = getelementptr inbounds [100 x float], [100 x float]* %11, i64 0, i64 %126
  %128 = load float, float* %127, align 4
  %129 = fmul float %124, %128
  %130 = fsub float %119, %129
  %131 = fcmp ogt float %130, 0.000000e+00
  br i1 %131, label %132, label %142

132:                                              ; preds = %40
  %133 = load double, double* %13, align 8
  %134 = load double, double* %14, align 8
  %135 = fadd double %133, %134
  store double %135, double* %7, align 8
  %136 = load double, double* %13, align 8
  %137 = load double, double* %14, align 8
  %138 = fsub double %136, %137
  store double %138, double* %8, align 8
  %139 = load double, double* %7, align 8
  %140 = load double, double* %8, align 8
  %141 = call i32 (i8*, ...) @printf(i8* getelementptr inbounds ([17 x i8], [17 x i8]* @.str.2, i64 0, i64 0), double %139, double %140)
  br label %175

142:                                              ; preds = %40
  %143 = load i32, i32* %12, align 4
  %144 = sext i32 %143 to i64
  %145 = getelementptr inbounds [100 x float], [100 x float]* %10, i64 0, i64 %144
  %146 = load float, float* %145, align 4
  %147 = load i32, i32* %12, align 4
  %148 = sext i32 %147 to i64
  %149 = getelementptr inbounds [100 x float], [100 x float]* %10, i64 0, i64 %148
  %150 = load float, float* %149, align 4
  %151 = fmul float %146, %150
  %152 = load i32, i32* %12, align 4
  %153 = sext i32 %152 to i64
  %154 = getelementptr inbounds [100 x float], [100 x float]* %9, i64 0, i64 %153
  %155 = load float, float* %154, align 4
  %156 = fmul float 4.000000e+00, %155
  %157 = load i32, i32* %12, align 4
  %158 = sext i32 %157 to i64
  %159 = getelementptr inbounds [100 x float], [100 x float]* %11, i64 0, i64 %158
  %160 = load float, float* %159, align 4
  %161 = fmul float %156, %160
  %162 = fsub float %151, %161
  %163 = fcmp oeq float %162, 0.000000e+00
  br i1 %163, label %164, label %167

164:                                              ; preds = %142
  %165 = load double, double* %13, align 8
  %166 = call i32 (i8*, ...) @printf(i8* getelementptr inbounds ([12 x i8], [12 x i8]* @.str.3, i64 0, i64 0), double %165)
  br label %174

167:                                              ; preds = %142
  %168 = load double, double* %13, align 8
  %169 = load double, double* %15, align 8
  %170 = call i32 (i8*, ...) @printf(i8* getelementptr inbounds ([15 x i8], [15 x i8]* @.str.4, i64 0, i64 0), double %168, double %169)
  %171 = load double, double* %13, align 8
  %172 = load double, double* %15, align 8
  %173 = call i32 (i8*, ...) @printf(i8* getelementptr inbounds ([15 x i8], [15 x i8]* @.str.5, i64 0, i64 0), double %171, double %172)
  br label %174

174:                                              ; preds = %167, %164
  br label %175

175:                                              ; preds = %174, %132
  br label %176

176:                                              ; preds = %175
  %177 = load i32, i32* %12, align 4
  %178 = add nsw i32 %177, 1
  store i32 %178, i32* %12, align 4
  br label %36

179:                                              ; preds = %36
  ret i32 0
}

declare dso_local i32 @__isoc99_scanf(i8*, ...) #1

; Function Attrs: nounwind
declare dso_local double @sqrt(double) #2

declare dso_local i32 @printf(i8*, ...) #1


!llvm.module.flags = !{!0}
!llvm.ident = !{!1}

!0 = !{i32 1, !"wchar_size", i32 4}
!1 = !{!"clang version 10.0.0-4ubuntu1 "}
