; ModuleID = 'source-C-CXX/26/2156.c'
source_filename = "source-C-CXX/26/2156.c"
target datalayout = "e-m:e-p270:32:32-p271:32:32-p272:64:64-i64:64-f80:128-n8:16:32:64-S128"
target triple = "x86_64-pc-linux-gnu"

@.str = private unnamed_addr constant [3 x i8] c"%d\00", align 1
@.str.1 = private unnamed_addr constant [7 x i8] c"%f%f%f\00", align 1
@.str.2 = private unnamed_addr constant [17 x i8] c"x1=%.5f;x2=%.5f\0A\00", align 1
@.str.3 = private unnamed_addr constant [12 x i8] c"x1=x2=%.5f\0A\00", align 1
@.str.4 = private unnamed_addr constant [15 x i8] c"x1=%.5f+%.5fi;\00", align 1
@.str.5 = private unnamed_addr constant [15 x i8] c"x2=%.5f-%.5fi\0A\00", align 1

; Function Attrs: nofree nounwind sspstrong uwtable
define dso_local i32 @main(i32 %0, i8** nocapture readnone %1) local_unnamed_addr #0 {
  %3 = alloca i32, align 4
  %4 = alloca [100 x float], align 16
  %5 = alloca [100 x float], align 16
  %6 = alloca [100 x float], align 16
  %7 = bitcast i32* %3 to i8*
  call void @llvm.lifetime.start.p0i8(i64 4, i8* nonnull %7) #4
  %8 = call i32 (i8*, ...) @__isoc99_scanf(i8* getelementptr inbounds ([3 x i8], [3 x i8]* @.str, i64 0, i64 0), i32* nonnull %3)
  %9 = bitcast [100 x float]* %4 to i8*
  call void @llvm.lifetime.start.p0i8(i64 400, i8* nonnull %9) #4
  %10 = bitcast [100 x float]* %5 to i8*
  call void @llvm.lifetime.start.p0i8(i64 400, i8* nonnull %10) #4
  %11 = bitcast [100 x float]* %6 to i8*
  call void @llvm.lifetime.start.p0i8(i64 400, i8* nonnull %11) #4
  %12 = load i32, i32* %3, align 4, !tbaa !5
  %13 = icmp sgt i32 %12, 0
  br i1 %13, label %16, label %83

14:                                               ; preds = %16
  %15 = icmp sgt i32 %23, 0
  br i1 %15, label %26, label %83

16:                                               ; preds = %2, %16
  %17 = phi i64 [ %22, %16 ], [ 0, %2 ]
  %18 = getelementptr inbounds [100 x float], [100 x float]* %4, i64 0, i64 %17
  %19 = getelementptr inbounds [100 x float], [100 x float]* %5, i64 0, i64 %17
  %20 = getelementptr inbounds [100 x float], [100 x float]* %6, i64 0, i64 %17
  %21 = call i32 (i8*, ...) @__isoc99_scanf(i8* getelementptr inbounds ([7 x i8], [7 x i8]* @.str.1, i64 0, i64 0), float* nonnull %18, float* nonnull %19, float* nonnull %20)
  %22 = add nuw nsw i64 %17, 1
  %23 = load i32, i32* %3, align 4, !tbaa !5
  %24 = sext i32 %23 to i64
  %25 = icmp slt i64 %22, %24
  br i1 %25, label %16, label %14, !llvm.loop !9

26:                                               ; preds = %14, %78
  %27 = phi i64 [ %79, %78 ], [ 0, %14 ]
  %28 = getelementptr inbounds [100 x float], [100 x float]* %5, i64 0, i64 %27
  %29 = load float, float* %28, align 4, !tbaa !11
  %30 = fneg float %29
  %31 = getelementptr inbounds [100 x float], [100 x float]* %4, i64 0, i64 %27
  %32 = load float, float* %31, align 4, !tbaa !11
  %33 = fmul float %32, 2.000000e+00
  %34 = fdiv float %30, %33
  %35 = fpext float %34 to double
  %36 = fmul float %29, %29
  %37 = fmul float %32, 4.000000e+00
  %38 = getelementptr inbounds [100 x float], [100 x float]* %6, i64 0, i64 %27
  %39 = load float, float* %38, align 4, !tbaa !11
  %40 = fmul float %37, %39
  %41 = fsub float %36, %40
  %42 = fpext float %41 to double
  %43 = call double @sqrt(double %42) #4
  %44 = load float, float* %31, align 4, !tbaa !11
  %45 = fmul float %44, 2.000000e+00
  %46 = fpext float %45 to double
  %47 = fdiv double %43, %46
  %48 = fmul float %44, 4.000000e+00
  %49 = load float, float* %38, align 4, !tbaa !11
  %50 = fmul float %48, %49
  %51 = load float, float* %28, align 4, !tbaa !11
  %52 = fmul float %51, %51
  %53 = fsub float %50, %52
  %54 = fpext float %53 to double
  %55 = call double @sqrt(double %54) #4
  %56 = load float, float* %31, align 4, !tbaa !11
  %57 = fmul float %56, 2.000000e+00
  %58 = fpext float %57 to double
  %59 = fdiv double %55, %58
  %60 = load float, float* %28, align 4, !tbaa !11
  %61 = fmul float %60, %60
  %62 = fmul float %56, 4.000000e+00
  %63 = load float, float* %38, align 4, !tbaa !11
  %64 = fmul float %62, %63
  %65 = fsub float %61, %64
  %66 = fcmp ogt float %65, 0.000000e+00
  br i1 %66, label %67, label %71

67:                                               ; preds = %26
  %68 = fadd double %47, %35
  %69 = fsub double %35, %47
  %70 = call i32 (i8*, ...) @printf(i8* nonnull dereferenceable(1) getelementptr inbounds ([17 x i8], [17 x i8]* @.str.2, i64 0, i64 0), double %68, double %69)
  br label %78

71:                                               ; preds = %26
  %72 = fcmp oeq float %65, 0.000000e+00
  br i1 %72, label %73, label %75

73:                                               ; preds = %71
  %74 = call i32 (i8*, ...) @printf(i8* nonnull dereferenceable(1) getelementptr inbounds ([12 x i8], [12 x i8]* @.str.3, i64 0, i64 0), double %35)
  br label %78

75:                                               ; preds = %71
  %76 = call i32 (i8*, ...) @printf(i8* nonnull dereferenceable(1) getelementptr inbounds ([15 x i8], [15 x i8]* @.str.4, i64 0, i64 0), double %35, double %59)
  %77 = call i32 (i8*, ...) @printf(i8* nonnull dereferenceable(1) getelementptr inbounds ([15 x i8], [15 x i8]* @.str.5, i64 0, i64 0), double %35, double %59)
  br label %78

78:                                               ; preds = %73, %75, %67
  %79 = add nuw nsw i64 %27, 1
  %80 = load i32, i32* %3, align 4, !tbaa !5
  %81 = sext i32 %80 to i64
  %82 = icmp slt i64 %79, %81
  br i1 %82, label %26, label %83, !llvm.loop !13

83:                                               ; preds = %78, %2, %14
  call void @llvm.lifetime.end.p0i8(i64 400, i8* nonnull %11) #4
  call void @llvm.lifetime.end.p0i8(i64 400, i8* nonnull %10) #4
  call void @llvm.lifetime.end.p0i8(i64 400, i8* nonnull %9) #4
  call void @llvm.lifetime.end.p0i8(i64 4, i8* nonnull %7) #4
  ret i32 0
}

; Function Attrs: argmemonly mustprogress nofree nosync nounwind willreturn
declare void @llvm.lifetime.start.p0i8(i64 immarg, i8* nocapture) #1

; Function Attrs: nofree nounwind
declare noundef i32 @__isoc99_scanf(i8* nocapture noundef readonly, ...) local_unnamed_addr #2

; Function Attrs: mustprogress nofree nounwind willreturn
declare double @sqrt(double) local_unnamed_addr #3

; Function Attrs: nofree nounwind
declare noundef i32 @printf(i8* nocapture noundef readonly, ...) local_unnamed_addr #2

; Function Attrs: argmemonly mustprogress nofree nosync nounwind willreturn
declare void @llvm.lifetime.end.p0i8(i64 immarg, i8* nocapture) #1


!llvm.module.flags = !{!0, !1, !2, !3}
!llvm.ident = !{!4}

!0 = !{i32 1, !"wchar_size", i32 4}
!1 = !{i32 7, !"PIC Level", i32 2}
!2 = !{i32 7, !"PIE Level", i32 2}
!3 = !{i32 7, !"uwtable", i32 1}
!4 = !{!"clang version 13.0.0"}
!5 = !{!6, !6, i64 0}
!6 = !{!"int", !7, i64 0}
!7 = !{!"omnipotent char", !8, i64 0}
!8 = !{!"Simple C/C++ TBAA"}
!9 = distinct !{!9, !10}
!10 = !{!"llvm.loop.mustprogress"}
!11 = !{!12, !12, i64 0}
!12 = !{!"float", !7, i64 0}
!13 = distinct !{!13, !10}
